; Function Attrs: nounwind uwtable
define hidden void @_glfwSetClipboardStringWayland(ptr noundef %0) local_unnamed_addr #0 {
  %2 = load ptr, ptr getelementptr inbounds nuw (i8, ptr @_glfw, i64 134056), align 8, !tbaa !343
  %.not = icmp eq ptr %2, null
  br i1 %.not, label %8, label %3

3:                                                ; preds = %1
  %4 = load ptr, ptr getelementptr inbounds nuw (i8, ptr @_glfw, i64 137528), align 8, !tbaa !136
  %5 = load ptr, ptr getelementptr inbounds nuw (i8, ptr @_glfw, i64 137520), align 8, !tbaa !93
  %6 = tail call i32 %5(ptr noundef nonnull %2) #20
  %7 = tail call ptr (ptr, i32, ptr, i32, i32, ...) %4(ptr noundef nonnull %2, i32 noundef 1, ptr noundef null, i32 noundef %6, i32 noundef 1) #20
  store ptr null, ptr getelementptr inbounds nuw (i8, ptr @_glfw, i64 134056), align 8, !tbaa !343
  br label %8

8:                                                ; preds = %3, %1
  %9 = tail call ptr @_glfw_strdup(ptr noundef %0) #20
  %.not5 = icmp eq ptr %9, null
  br i1 %.not5, label %10, label %11

10:                                               ; preds = %8
  tail call void (i32, ptr, ...) @_glfwInputError(i32 noundef 65541, ptr noundef null) #20
  br label %34

11:                                               ; preds = %8
  %12 = load ptr, ptr getelementptr inbounds nuw (i8, ptr @_glfw, i64 134160), align 8, !tbaa !344
  tail call void @_glfw_free(ptr noundef %12) #20
  store ptr %9, ptr getelementptr inbounds nuw (i8, ptr @_glfw, i64 134160), align 8, !tbaa !344
  %13 = load ptr, ptr getelementptr inbounds nuw (i8, ptr @_glfw, i64 133952), align 8, !tbaa !345
  %14 = load ptr, ptr getelementptr inbounds nuw (i8, ptr @_glfw, i64 137528), align 8, !tbaa !136
  %15 = load ptr, ptr getelementptr inbounds nuw (i8, ptr @_glfw, i64 137520), align 8, !tbaa !93
  %16 = tail call i32 %15(ptr noundef %13) #20
  %17 = tail call ptr (ptr, i32, ptr, i32, i32, ...) %14(ptr noundef %13, i32 noundef 0, ptr noundef nonnull @_glfw_wl_data_source_interface, i32 noundef %16, i32 noundef 0, ptr noundef null) #20
  store ptr %17, ptr getelementptr inbounds nuw (i8, ptr @_glfw, i64 134056), align 8, !tbaa !343
  %.not6 = icmp eq ptr %17, null
  br i1 %.not6, label %18, label %19

18:                                               ; preds = %11
  tail call void (i32, ptr, ...) @_glfwInputError(i32 noundef 65544, ptr noundef nonnull @.str.31) #20
  br label %34

19:                                               ; preds = %11
  %20 = load ptr, ptr getelementptr inbounds nuw (i8, ptr @_glfw, i64 137456), align 8, !tbaa !176
  %21 = tail call i32 %20(ptr noundef nonnull %17, ptr noundef nonnull @dataSourceListener, ptr noundef null) #20
  %22 = load ptr, ptr getelementptr inbounds nuw (i8, ptr @_glfw, i64 134056), align 8, !tbaa !343
  %23 = load ptr, ptr getelementptr inbounds nuw (i8, ptr @_glfw, i64 137528), align 8, !tbaa !136
  %24 = load ptr, ptr getelementptr inbounds nuw (i8, ptr @_glfw, i64 137520), align 8, !tbaa !93
  %25 = tail call i32 %24(ptr noundef %22) #20
  %26 = tail call ptr (ptr, i32, ptr, i32, i32, ...) %23(ptr noundef %22, i32 noundef 0, ptr noundef null, i32 noundef %25, i32 noundef 0, ptr noundef nonnull @.str.32) #20
  %27 = load ptr, ptr getelementptr inbounds nuw (i8, ptr @_glfw, i64 133960), align 8, !tbaa !346
  %28 = load ptr, ptr getelementptr inbounds nuw (i8, ptr @_glfw, i64 134056), align 8, !tbaa !343
  %29 = load i32, ptr getelementptr inbounds nuw (i8, ptr @_glfw, i64 134132), align 4, !tbaa !251
  %30 = load ptr, ptr getelementptr inbounds nuw (i8, ptr @_glfw, i64 137528), align 8, !tbaa !136
  %31 = load ptr, ptr getelementptr inbounds nuw (i8, ptr @_glfw, i64 137520), align 8, !tbaa !93
  %32 = tail call i32 %31(ptr noundef %27) #20
  %33 = tail call ptr (ptr, i32, ptr, i32, i32, ...) %30(ptr noundef %27, i32 noundef 1, ptr noundef null, i32 noundef %32, i32 noundef 0, ptr noundef %28, i32 noundef %29) #20
  br label %34

34:                                               ; preds = %19, %18, %10
  ret void
}